target datalayout = "e-m:e-p270:32:32-p271:32:32-p272:64:64-i64:64-i128:128-f80:128-n8:16:32:64-S128"
target triple = "x86_64-pc-linux-gnu"

%struct.OutputPluginCallbacks = type { ptr, ptr, ptr, ptr, ptr, ptr, ptr, ptr, ptr, ptr, ptr, ptr, ptr, ptr, ptr, ptr, ptr, ptr, ptr, ptr, ptr }
%struct.LogicalDecodingContext = type { ptr, ptr, ptr, ptr, ptr, i8, %struct.OutputPluginCallbacks, %struct.OutputPluginOptions, ptr, ptr, ptr, ptr, ptr, ptr, ptr, i8, i8, i8, i8, i8, i64, i32, i8, i8 }
%struct.OutputPluginOptions = type { i32, i8 }
%struct.PGOutputData = type { ptr, ptr, ptr, i8, i32, ptr, ptr, i8, i8, i8, i8, i8 }

; Function Attrs: nounwind uwtable
define internal void @pgoutput_stream_stop(ptr noundef %0, ptr noundef %1) #0 {
  %3 = alloca ptr, align 8
  %4 = alloca ptr, align 8
  %5 = alloca ptr, align 8
  store ptr %0, ptr %3, align 8
  store ptr %1, ptr %4, align 8
  call void @llvm.lifetime.start.p0(i64 8, ptr %5) #10
  %6 = load ptr, ptr %3, align 8
  %7 = getelementptr inbounds nuw %struct.LogicalDecodingContext, ptr %6, i32 0, i32 13
  %8 = load ptr, ptr %7, align 8
  store ptr %8, ptr %5, align 8
  %9 = load ptr, ptr %3, align 8
  call void @OutputPluginPrepareWrite(ptr noundef %9, i1 noundef zeroext true)
  %10 = load ptr, ptr %3, align 8
  %11 = getelementptr inbounds nuw %struct.LogicalDecodingContext, ptr %10, i32 0, i32 12
  %12 = load ptr, ptr %11, align 8
  call void @logicalrep_write_stream_stop(ptr noundef %12)
  %13 = load ptr, ptr %3, align 8
  call void @OutputPluginWrite(ptr noundef %13, i1 noundef zeroext true)
  %14 = load ptr, ptr %5, align 8
  %15 = getelementptr inbounds nuw %struct.PGOutputData, ptr %14, i32 0, i32 3
  store i8 0, ptr %15, align 8
  call void @llvm.lifetime.end.p0(i64 8, ptr %5) #10
  ret void
}