; Function Attrs: nounwind uwtable
define internal void @pgoutput_stream_stop(ptr noundef %0, ptr readnone captures(none) %1) #2 {
  %3 = getelementptr inbounds nuw i8, ptr %0, i64 264
  %4 = load ptr, ptr %3, align 8
  tail call void @OutputPluginPrepareWrite(ptr noundef %0, i1 noundef zeroext true) #13
  %5 = getelementptr inbounds nuw i8, ptr %0, i64 256
  %6 = load ptr, ptr %5, align 8
  tail call void @logicalrep_write_stream_stop(ptr noundef %6) #13
  tail call void @OutputPluginWrite(ptr noundef %0, i1 noundef zeroext true) #13
  %7 = getelementptr inbounds nuw i8, ptr %4, i64 24
  store i8 0, ptr %7, align 8
  ret void
}